target datalayout = "e-m:e-p270:32:32-p271:32:32-p272:64:64-i64:64-f80:128-n8:16:32:64-S128"
target triple = "x86_64-pc-linux-gnu"

%struct.juli = type { [3 x i32], [3 x i32], float }

@.str = private unnamed_addr constant [3 x i8] c"%d\00", align 1
@.str.1 = private unnamed_addr constant [9 x i8] c"%d %d %d\00", align 1
@.str.2 = private unnamed_addr constant [28 x i8] c"(%d,%d,%d)-(%d,%d,%d)=%.2f\0A\00", align 1

; Function Attrs: noinline nounwind uwtable
define dso_local i32 @main() #0 {
  %1 = alloca i32, align 4
  %2 = alloca i32, align 4
  %3 = alloca i32, align 4
  %4 = alloca i32, align 4
  %5 = alloca i32, align 4
  %6 = alloca i32, align 4
  %7 = alloca i32, align 4
  %8 = alloca i32, align 4
  %9 = alloca [10 x [3 x i32]], align 16
  %10 = alloca [50 x %struct.juli], align 16
  %11 = alloca %struct.juli, align 4
  store i32 0, i32* %1, align 4
  store i32 0, i32* %3, align 4
  %12 = call i32 (i8*, ...) @__isoc99_scanf(i8* getelementptr inbounds ([3 x i8], [3 x i8]* @.str, i64 0, i64 0), i32* %2)
  store i32 0, i32* %4, align 4
  br label %13

13:                                               ; preds = %31, %0
  %14 = load i32, i32* %4, align 4
  %15 = load i32, i32* %2, align 4
  %16 = icmp slt i32 %14, %15
  br i1 %16, label %17, label %34

17:                                               ; preds = %13
  %18 = load i32, i32* %4, align 4
  %19 = sext i32 %18 to i64
  %20 = getelementptr inbounds [10 x [3 x i32]], [10 x [3 x i32]]* %9, i64 0, i64 %19
  %21 = getelementptr inbounds [3 x i32], [3 x i32]* %20, i64 0, i64 0
  %22 = load i32, i32* %4, align 4
  %23 = sext i32 %22 to i64
  %24 = getelementptr inbounds [10 x [3 x i32]], [10 x [3 x i32]]* %9, i64 0, i64 %23
  %25 = getelementptr inbounds [3 x i32], [3 x i32]* %24, i64 0, i64 1
  %26 = load i32, i32* %4, align 4
  %27 = sext i32 %26 to i64
  %28 = getelementptr inbounds [10 x [3 x i32]], [10 x [3 x i32]]* %9, i64 0, i64 %27
  %29 = getelementptr inbounds [3 x i32], [3 x i32]* %28, i64 0, i64 2
  %30 = call i32 (i8*, ...) @__isoc99_scanf(i8* getelementptr inbounds ([9 x i8], [9 x i8]* @.str.1, i64 0, i64 0), i32* %21, i32* %25, i32* %29)
  br label %31

31:                                               ; preds = %17
  %32 = load i32, i32* %4, align 4
  %33 = add nsw i32 %32, 1
  store i32 %33, i32* %4, align 4
  br label %13

34:                                               ; preds = %13
  store i32 0, i32* %4, align 4
  br label %35

35:                                               ; preds = %132, %34
  %36 = load i32, i32* %4, align 4
  %37 = load i32, i32* %2, align 4
  %38 = sub nsw i32 %37, 1
  %39 = icmp slt i32 %36, %38
  br i1 %39, label %40, label %135

40:                                               ; preds = %35
  %41 = load i32, i32* %4, align 4
  %42 = add nsw i32 %41, 1
  store i32 %42, i32* %5, align 4
  br label %43

43:                                               ; preds = %128, %40
  %44 = load i32, i32* %5, align 4
  %45 = load i32, i32* %2, align 4
  %46 = icmp slt i32 %44, %45
  br i1 %46, label %47, label %131

47:                                               ; preds = %43
  store i32 0, i32* %7, align 4
  store i32 0, i32* %6, align 4
  br label %48

48:                                               ; preds = %113, %47
  %49 = load i32, i32* %6, align 4
  %50 = icmp slt i32 %49, 3
  br i1 %50, label %51, label %116

51:                                               ; preds = %48
  %52 = load i32, i32* %4, align 4
  %53 = sext i32 %52 to i64
  %54 = getelementptr inbounds [10 x [3 x i32]], [10 x [3 x i32]]* %9, i64 0, i64 %53
  %55 = load i32, i32* %6, align 4
  %56 = sext i32 %55 to i64
  %57 = getelementptr inbounds [3 x i32], [3 x i32]* %54, i64 0, i64 %56
  %58 = load i32, i32* %57, align 4
  %59 = load i32, i32* %3, align 4
  %60 = sext i32 %59 to i64
  %61 = getelementptr inbounds [50 x %struct.juli], [50 x %struct.juli]* %10, i64 0, i64 %60
  %62 = getelementptr inbounds %struct.juli, %struct.juli* %61, i32 0, i32 0
  %63 = load i32, i32* %6, align 4
  %64 = sext i32 %63 to i64
  %65 = getelementptr inbounds [3 x i32], [3 x i32]* %62, i64 0, i64 %64
  store i32 %58, i32* %65, align 4
  %66 = load i32, i32* %5, align 4
  %67 = sext i32 %66 to i64
  %68 = getelementptr inbounds [10 x [3 x i32]], [10 x [3 x i32]]* %9, i64 0, i64 %67
  %69 = load i32, i32* %6, align 4
  %70 = sext i32 %69 to i64
  %71 = getelementptr inbounds [3 x i32], [3 x i32]* %68, i64 0, i64 %70
  %72 = load i32, i32* %71, align 4
  %73 = load i32, i32* %3, align 4
  %74 = sext i32 %73 to i64
  %75 = getelementptr inbounds [50 x %struct.juli], [50 x %struct.juli]* %10, i64 0, i64 %74
  %76 = getelementptr inbounds %struct.juli, %struct.juli* %75, i32 0, i32 1
  %77 = load i32, i32* %6, align 4
  %78 = sext i32 %77 to i64
  %79 = getelementptr inbounds [3 x i32], [3 x i32]* %76, i64 0, i64 %78
  store i32 %72, i32* %79, align 4
  %80 = load i32, i32* %4, align 4
  %81 = sext i32 %80 to i64
  %82 = getelementptr inbounds [10 x [3 x i32]], [10 x [3 x i32]]* %9, i64 0, i64 %81
  %83 = load i32, i32* %6, align 4
  %84 = sext i32 %83 to i64
  %85 = getelementptr inbounds [3 x i32], [3 x i32]* %82, i64 0, i64 %84
  %86 = load i32, i32* %85, align 4
  %87 = load i32, i32* %5, align 4
  %88 = sext i32 %87 to i64
  %89 = getelementptr inbounds [10 x [3 x i32]], [10 x [3 x i32]]* %9, i64 0, i64 %88
  %90 = load i32, i32* %6, align 4
  %91 = sext i32 %90 to i64
  %92 = getelementptr inbounds [3 x i32], [3 x i32]* %89, i64 0, i64 %91
  %93 = load i32, i32* %92, align 4
  %94 = sub nsw i32 %86, %93
  %95 = load i32, i32* %4, align 4
  %96 = sext i32 %95 to i64
  %97 = getelementptr inbounds [10 x [3 x i32]], [10 x [3 x i32]]* %9, i64 0, i64 %96
  %98 = load i32, i32* %6, align 4
  %99 = sext i32 %98 to i64
  %100 = getelementptr inbounds [3 x i32], [3 x i32]* %97, i64 0, i64 %99
  %101 = load i32, i32* %100, align 4
  %102 = load i32, i32* %5, align 4
  %103 = sext i32 %102 to i64
  %104 = getelementptr inbounds [10 x [3 x i32]], [10 x [3 x i32]]* %9, i64 0, i64 %103
  %105 = load i32, i32* %6, align 4
  %106 = sext i32 %105 to i64
  %107 = getelementptr inbounds [3 x i32], [3 x i32]* %104, i64 0, i64 %106
  %108 = load i32, i32* %107, align 4
  %109 = sub nsw i32 %101, %108
  %110 = mul nsw i32 %94, %109
  %111 = load i32, i32* %7, align 4
  %112 = add nsw i32 %111, %110
  store i32 %112, i32* %7, align 4
  br label %113

113:                                              ; preds = %51
  %114 = load i32, i32* %6, align 4
  %115 = add nsw i32 %114, 1
  store i32 %115, i32* %6, align 4
  br label %48

116:                                              ; preds = %48
  %117 = load i32, i32* %7, align 4
  %118 = sitofp i32 %117 to double
  %119 = call double @llvm.fabs.f64(double %118)
  %120 = call double @sqrt(double %119) #5
  %121 = fptrunc double %120 to float
  %122 = load i32, i32* %3, align 4
  %123 = sext i32 %122 to i64
  %124 = getelementptr inbounds [50 x %struct.juli], [50 x %struct.juli]* %10, i64 0, i64 %123
  %125 = getelementptr inbounds %struct.juli, %struct.juli* %124, i32 0, i32 2
  store float %121, float* %125, align 4
  %126 = load i32, i32* %3, align 4
  %127 = add nsw i32 %126, 1
  store i32 %127, i32* %3, align 4
  br label %128

128:                                              ; preds = %116
  %129 = load i32, i32* %5, align 4
  %130 = add nsw i32 %129, 1
  store i32 %130, i32* %5, align 4
  br label %43

131:                                              ; preds = %43
  br label %132

132:                                              ; preds = %131
  %133 = load i32, i32* %4, align 4
  %134 = add nsw i32 %133, 1
  store i32 %134, i32* %4, align 4
  br label %35

135:                                              ; preds = %35
  %136 = load i32, i32* %3, align 4
  store i32 %136, i32* %6, align 4
  br label %137

137:                                              ; preds = %185, %135
  %138 = load i32, i32* %3, align 4
  %139 = icmp ne i32 %138, 0
  br i1 %139, label %140, label %188

140:                                              ; preds = %137
  store i32 0, i32* %4, align 4
  br label %141

141:                                              ; preds = %181, %140
  %142 = load i32, i32* %4, align 4
  %143 = load i32, i32* %3, align 4
  %144 = sub nsw i32 %143, 1
  %145 = icmp slt i32 %142, %144
  br i1 %145, label %146, label %184

146:                                              ; preds = %141
  %147 = load i32, i32* %4, align 4
  %148 = sext i32 %147 to i64
  %149 = getelementptr inbounds [50 x %struct.juli], [50 x %struct.juli]* %10, i64 0, i64 %148
  %150 = getelementptr inbounds %struct.juli, %struct.juli* %149, i32 0, i32 2
  %151 = load float, float* %150, align 4
  %152 = load i32, i32* %4, align 4
  %153 = add nsw i32 %152, 1
  %154 = sext i32 %153 to i64
  %155 = getelementptr inbounds [50 x %struct.juli], [50 x %struct.juli]* %10, i64 0, i64 %154
  %156 = getelementptr inbounds %struct.juli, %struct.juli* %155, i32 0, i32 2
  %157 = load float, float* %156, align 4
  %158 = fcmp olt float %151, %157
  br i1 %158, label %159, label %180

159:                                              ; preds = %146
  %160 = load i32, i32* %4, align 4
  %161 = sext i32 %160 to i64
  %162 = getelementptr inbounds [50 x %struct.juli], [50 x %struct.juli]* %10, i64 0, i64 %161
  %163 = bitcast %struct.juli* %11 to i8*
  %164 = bitcast %struct.juli* %162 to i8*
  call void @llvm.memcpy.p0i8.p0i8.i64(i8* align 4 %163, i8* align 4 %164, i64 28, i1 false)
  %165 = load i32, i32* %4, align 4
  %166 = sext i32 %165 to i64
  %167 = getelementptr inbounds [50 x %struct.juli], [50 x %struct.juli]* %10, i64 0, i64 %166
  %168 = load i32, i32* %4, align 4
  %169 = add nsw i32 %168, 1
  %170 = sext i32 %169 to i64
  %171 = getelementptr inbounds [50 x %struct.juli], [50 x %struct.juli]* %10, i64 0, i64 %170
  %172 = bitcast %struct.juli* %167 to i8*
  %173 = bitcast %struct.juli* %171 to i8*
  call void @llvm.memcpy.p0i8.p0i8.i64(i8* align 4 %172, i8* align 4 %173, i64 28, i1 false)
  %174 = load i32, i32* %4, align 4
  %175 = add nsw i32 %174, 1
  %176 = sext i32 %175 to i64
  %177 = getelementptr inbounds [50 x %struct.juli], [50 x %struct.juli]* %10, i64 0, i64 %176
  %178 = bitcast %struct.juli* %177 to i8*
  %179 = bitcast %struct.juli* %11 to i8*
  call void @llvm.memcpy.p0i8.p0i8.i64(i8* align 4 %178, i8* align 4 %179, i64 28, i1 false)
  br label %180

180:                                              ; preds = %159, %146
  br label %181

181:                                              ; preds = %180
  %182 = load i32, i32* %4, align 4
  %183 = add nsw i32 %182, 1
  store i32 %183, i32* %4, align 4
  br label %141

184:                                              ; preds = %141
  br label %185

185:                                              ; preds = %184
  %186 = load i32, i32* %3, align 4
  %187 = add nsw i32 %186, -1
  store i32 %187, i32* %3, align 4
  br label %137

188:                                              ; preds = %137
  store i32 0, i32* %4, align 4
  br label %189

189:                                              ; preds = %237, %188
  %190 = load i32, i32* %4, align 4
  %191 = load i32, i32* %6, align 4
  %192 = icmp slt i32 %190, %191
  br i1 %192, label %193, label %240

193:                                              ; preds = %189
  %194 = load i32, i32* %4, align 4
  %195 = sext i32 %194 to i64
  %196 = getelementptr inbounds [50 x %struct.juli], [50 x %struct.juli]* %10, i64 0, i64 %195
  %197 = getelementptr inbounds %struct.juli, %struct.juli* %196, i32 0, i32 0
  %198 = getelementptr inbounds [3 x i32], [3 x i32]* %197, i64 0, i64 0
  %199 = load i32, i32* %198, align 4
  %200 = load i32, i32* %4, align 4
  %201 = sext i32 %200 to i64
  %202 = getelementptr inbounds [50 x %struct.juli], [50 x %struct.juli]* %10, i64 0, i64 %201
  %203 = getelementptr inbounds %struct.juli, %struct.juli* %202, i32 0, i32 0
  %204 = getelementptr inbounds [3 x i32], [3 x i32]* %203, i64 0, i64 1
  %205 = load i32, i32* %204, align 4
  %206 = load i32, i32* %4, align 4
  %207 = sext i32 %206 to i64
  %208 = getelementptr inbounds [50 x %struct.juli], [50 x %struct.juli]* %10, i64 0, i64 %207
  %209 = getelementptr inbounds %struct.juli, %struct.juli* %208, i32 0, i32 0
  %210 = getelementptr inbounds [3 x i32], [3 x i32]* %209, i64 0, i64 2
  %211 = load i32, i32* %210, align 4
  %212 = load i32, i32* %4, align 4
  %213 = sext i32 %212 to i64
  %214 = getelementptr inbounds [50 x %struct.juli], [50 x %struct.juli]* %10, i64 0, i64 %213
  %215 = getelementptr inbounds %struct.juli, %struct.juli* %214, i32 0, i32 1
  %216 = getelementptr inbounds [3 x i32], [3 x i32]* %215, i64 0, i64 0
  %217 = load i32, i32* %216, align 4
  %218 = load i32, i32* %4, align 4
  %219 = sext i32 %218 to i64
  %220 = getelementptr inbounds [50 x %struct.juli], [50 x %struct.juli]* %10, i64 0, i64 %219
  %221 = getelementptr inbounds %struct.juli, %struct.juli* %220, i32 0, i32 1
  %222 = getelementptr inbounds [3 x i32], [3 x i32]* %221, i64 0, i64 1
  %223 = load i32, i32* %222, align 4
  %224 = load i32, i32* %4, align 4
  %225 = sext i32 %224 to i64
  %226 = getelementptr inbounds [50 x %struct.juli], [50 x %struct.juli]* %10, i64 0, i64 %225
  %227 = getelementptr inbounds %struct.juli, %struct.juli* %226, i32 0, i32 1
  %228 = getelementptr inbounds [3 x i32], [3 x i32]* %227, i64 0, i64 2
  %229 = load i32, i32* %228, align 4
  %230 = load i32, i32* %4, align 4
  %231 = sext i32 %230 to i64
  %232 = getelementptr inbounds [50 x %struct.juli], [50 x %struct.juli]* %10, i64 0, i64 %231
  %233 = getelementptr inbounds %struct.juli, %struct.juli* %232, i32 0, i32 2
  %234 = load float, float* %233, align 4
  %235 = fpext float %234 to double
  %236 = call i32 (i8*, ...) @printf(i8* getelementptr inbounds ([28 x i8], [28 x i8]* @.str.2, i64 0, i64 0), i32 %199, i32 %205, i32 %211, i32 %217, i32 %223, i32 %229, double %235)
  br label %237

237:                                              ; preds = %193
  %238 = load i32, i32* %4, align 4
  %239 = add nsw i32 %238, 1
  store i32 %239, i32* %4, align 4
  br label %189

240:                                              ; preds = %189
  %241 = load i32, i32* %1, align 4
  ret i32 %241
}